target datalayout = "e-m:e-p270:32:32-p271:32:32-p272:64:64-i64:64-i128:128-f80:128-n8:16:32:64-S128"
target triple = "x86_64-pc-linux-gnu"

%struct.H5C_class_t = type { i32, ptr, i32, i32, ptr, ptr, ptr, ptr, ptr, ptr, ptr, ptr, ptr, ptr }
%struct.H5EA_iblock_t = type { %struct.H5C_cache_entry_t, ptr, ptr, ptr, ptr, i64, i64, ptr, i64, i64, i64 }
%struct.H5C_cache_entry_t = type { ptr, i64, i64, ptr, i8, ptr, i8, i8, i8, i8, i32, i8, i8, i8, i8, i8, i32, ptr, i32, i32, i32, i32, i32, i8, i8, ptr, ptr, ptr, ptr, ptr, ptr, i8, i32, i8, i64, ptr, i64, i64, i32, i8, i32, i32, i8, ptr, ptr, ptr }
%struct.H5EA_hdr_t = type { %struct.H5C_cache_entry_t, %struct.H5EA_create_t, i64, %struct.H5EA_stat_t, %struct.anon.1, i64, i64, i64, ptr, i64, i8, i64, i64, i8, i64, ptr, i64, ptr, i8, ptr, ptr }
%struct.H5EA_create_t = type { ptr, i8, i8, i8, i8, i8, i8 }
%struct.H5EA_stat_t = type { %struct.anon, %struct.anon.0 }
%struct.anon = type { i64, i64, i64 }
%struct.anon.0 = type { i64, i64, i64, i64, i64, i64 }
%struct.anon.1 = type { i64, ptr }

@H5EA_init_g = external global i8, align 1
@H5_libterm_g = external global i8, align 1
@.str = private unnamed_addr constant [104 x i8] c"generated/home/dtcxzyw/WorkSpace/Projects/compilers/llvm-opt-benchmark/bench/hdf5/hdf5/src/H5EAiblock.c\00", align 1
@H5E_EARRAY_g = external global i64, align 8
@H5E_CANTSET_g = external global i64, align 8
@H5AC_EARRAY_IBLOCK = external constant [1 x %struct.H5C_class_t], align 16
@.str.10 = private unnamed_addr constant [61 x i8] c"unable to add extensible array entry as child of array proxy\00", align 1
@__func__.H5EA__iblock_protect = private unnamed_addr constant [21 x i8] c"H5EA__iblock_protect\00", align 1
@H5E_CANTPROTECT_g = external global i64, align 8
@.str.13 = private unnamed_addr constant [63 x i8] c"unable to protect extensible array index block, address = %llu\00", align 1
@H5E_CANTUNPROTECT_g = external global i64, align 8
@.str.14 = private unnamed_addr constant [65 x i8] c"unable to unprotect extensible array index block, address = %llu\00", align 1

; Function Attrs: nounwind uwtable
define ptr @H5EA__iblock_protect(ptr noundef %0, i32 noundef %1) #0 {
  %3 = alloca ptr, align 8
  %4 = alloca i32, align 4
  %5 = alloca ptr, align 8
  %6 = alloca ptr, align 8
  %7 = alloca i8, align 1
  store ptr %0, ptr %3, align 8, !tbaa !3
  store i32 %1, ptr %4, align 4, !tbaa !51
  call void @llvm.lifetime.start.p0(i64 8, ptr %5) #5
  store ptr null, ptr %5, align 8, !tbaa !8
  call void @llvm.lifetime.start.p0(i64 8, ptr %6) #5
  store ptr null, ptr %6, align 8, !tbaa !8
  call void @llvm.lifetime.start.p0(i64 1, ptr %7) #5
  store i8 0, ptr %7, align 1, !tbaa !10
  %8 = load i8, ptr @H5EA_init_g, align 1, !tbaa !10, !range !12, !noundef !13
  %9 = trunc i8 %8 to i1
  br i1 %9, label %14, label %10

10:                                               ; preds = %2
  %11 = load i8, ptr @H5_libterm_g, align 1, !tbaa !10, !range !12, !noundef !13
  %12 = trunc i8 %11 to i1
  %13 = xor i1 %12, true
  br label %14

14:                                               ; preds = %10, %2
  %15 = phi i1 [ true, %2 ], [ %13, %10 ]
  %16 = xor i1 %15, true
  %17 = xor i1 %16, true
  %18 = zext i1 %17 to i32
  %19 = sext i32 %18 to i64
  %20 = call i64 @llvm.expect.i64(i64 %19, i64 1)
  %21 = icmp ne i64 %20, 0
  br i1 %21, label %22, label %139

22:                                               ; preds = %14
  %23 = load ptr, ptr %3, align 8, !tbaa !3
  %24 = getelementptr inbounds nuw %struct.H5EA_hdr_t, ptr %23, i32 0, i32 8
  %25 = load ptr, ptr %24, align 8, !tbaa !57
  %26 = load ptr, ptr %3, align 8, !tbaa !3
  %27 = getelementptr inbounds nuw %struct.H5EA_hdr_t, ptr %26, i32 0, i32 2
  %28 = load i64, ptr %27, align 8, !tbaa !64
  %29 = load ptr, ptr %3, align 8, !tbaa !3
  %30 = load i32, ptr %4, align 4, !tbaa !51
  %31 = call ptr @H5AC_protect(ptr noundef %25, ptr noundef @H5AC_EARRAY_IBLOCK, i64 noundef %28, ptr noundef %29, i32 noundef %30)
  store ptr %31, ptr %5, align 8, !tbaa !8
  %32 = icmp eq ptr null, %31
  br i1 %32, label %33, label %55

33:                                               ; preds = %22
  br label %34

34:                                               ; preds = %33
  br label %35

35:                                               ; preds = %34
  br label %36

36:                                               ; preds = %35
  %37 = load i64, ptr @H5E_EARRAY_g, align 8, !tbaa !14
  %38 = load i64, ptr @H5E_CANTPROTECT_g, align 8, !tbaa !14
  %39 = load ptr, ptr %3, align 8, !tbaa !3
  %40 = getelementptr inbounds nuw %struct.H5EA_hdr_t, ptr %39, i32 0, i32 2
  %41 = load i64, ptr %40, align 8, !tbaa !64
  %42 = call i32 (ptr, ptr, i32, i64, i64, ptr, ...) @H5E_printf_stack(ptr noundef @.str, ptr noundef @__func__.H5EA__iblock_protect, i32 noundef 289, i64 noundef %37, i64 noundef %38, ptr noundef @.str.13, i64 noundef %41)
  br label %43

43:                                               ; preds = %36
  br label %44

44:                                               ; preds = %43
  store i8 1, ptr %7, align 1, !tbaa !10
  %45 = load i8, ptr %7, align 1, !tbaa !10, !range !12, !noundef !13
  %46 = trunc i8 %45 to i1
  %47 = zext i1 %46 to i8
  store i8 %47, ptr %7, align 1, !tbaa !10
  br label %48

48:                                               ; preds = %44
  br label %49

49:                                               ; preds = %48
  br label %50

50:                                               ; preds = %49
  store ptr null, ptr %6, align 8, !tbaa !8
  br label %102

51:                                               ; No predecessors!
  br label %52

52:                                               ; preds = %51
  br label %53

53:                                               ; preds = %52
  br label %54

54:                                               ; preds = %53
  br label %55

55:                                               ; preds = %54, %22
  %56 = load ptr, ptr %3, align 8, !tbaa !3
  %57 = getelementptr inbounds nuw %struct.H5EA_hdr_t, ptr %56, i32 0, i32 19
  %58 = load ptr, ptr %57, align 8, !tbaa !59
  %59 = icmp ne ptr %58, null
  br i1 %59, label %60, label %100

60:                                               ; preds = %55
  %61 = load ptr, ptr %5, align 8, !tbaa !8
  %62 = getelementptr inbounds nuw %struct.H5EA_iblock_t, ptr %61, i32 0, i32 7
  %63 = load ptr, ptr %62, align 8, !tbaa !60
  %64 = icmp eq ptr null, %63
  br i1 %64, label %65, label %100

65:                                               ; preds = %60
  %66 = load ptr, ptr %3, align 8, !tbaa !3
  %67 = getelementptr inbounds nuw %struct.H5EA_hdr_t, ptr %66, i32 0, i32 19
  %68 = load ptr, ptr %67, align 8, !tbaa !59
  %69 = load ptr, ptr %3, align 8, !tbaa !3
  %70 = getelementptr inbounds nuw %struct.H5EA_hdr_t, ptr %69, i32 0, i32 8
  %71 = load ptr, ptr %70, align 8, !tbaa !57
  %72 = load ptr, ptr %5, align 8, !tbaa !8
  %73 = call i32 @H5AC_proxy_entry_add_child(ptr noundef %68, ptr noundef %71, ptr noundef %72)
  %74 = icmp slt i32 %73, 0
  br i1 %74, label %75, label %94

75:                                               ; preds = %65
  br label %76

76:                                               ; preds = %75
  br label %77

77:                                               ; preds = %76
  br label %78

78:                                               ; preds = %77
  %79 = load i64, ptr @H5E_EARRAY_g, align 8, !tbaa !14
  %80 = load i64, ptr @H5E_CANTSET_g, align 8, !tbaa !14
  %81 = call i32 (ptr, ptr, i32, i64, i64, ptr, ...) @H5E_printf_stack(ptr noundef @.str, ptr noundef @__func__.H5EA__iblock_protect, i32 noundef 296, i64 noundef %79, i64 noundef %80, ptr noundef @.str.10)
  br label %82

82:                                               ; preds = %78
  br label %83

83:                                               ; preds = %82
  store i8 1, ptr %7, align 1, !tbaa !10
  %84 = load i8, ptr %7, align 1, !tbaa !10, !range !12, !noundef !13
  %85 = trunc i8 %84 to i1
  %86 = zext i1 %85 to i8
  store i8 %86, ptr %7, align 1, !tbaa !10
  br label %87

87:                                               ; preds = %83
  br label %88

88:                                               ; preds = %87
  br label %89

89:                                               ; preds = %88
  store ptr null, ptr %6, align 8, !tbaa !8
  br label %102

90:                                               ; No predecessors!
  br label %91

91:                                               ; preds = %90
  br label %92

92:                                               ; preds = %91
  br label %93

93:                                               ; preds = %92
  br label %94

94:                                               ; preds = %93, %65
  %95 = load ptr, ptr %3, align 8, !tbaa !3
  %96 = getelementptr inbounds nuw %struct.H5EA_hdr_t, ptr %95, i32 0, i32 19
  %97 = load ptr, ptr %96, align 8, !tbaa !59
  %98 = load ptr, ptr %5, align 8, !tbaa !8
  %99 = getelementptr inbounds nuw %struct.H5EA_iblock_t, ptr %98, i32 0, i32 7
  store ptr %97, ptr %99, align 8, !tbaa !60
  br label %100

100:                                              ; preds = %94, %60, %55
  %101 = load ptr, ptr %5, align 8, !tbaa !8
  store ptr %101, ptr %6, align 8, !tbaa !8
  br label %102

102:                                              ; preds = %100, %89, %50
  %103 = load ptr, ptr %6, align 8, !tbaa !8
  %104 = icmp ne ptr %103, null
  br i1 %104, label %138, label %105

105:                                              ; preds = %102
  %106 = load ptr, ptr %5, align 8, !tbaa !8
  %107 = icmp ne ptr %106, null
  br i1 %107, label %108, label %137

108:                                              ; preds = %105
  %109 = load ptr, ptr %3, align 8, !tbaa !3
  %110 = getelementptr inbounds nuw %struct.H5EA_hdr_t, ptr %109, i32 0, i32 8
  %111 = load ptr, ptr %110, align 8, !tbaa !57
  %112 = load ptr, ptr %5, align 8, !tbaa !8
  %113 = getelementptr inbounds nuw %struct.H5EA_iblock_t, ptr %112, i32 0, i32 5
  %114 = load i64, ptr %113, align 8, !tbaa !27
  %115 = load ptr, ptr %5, align 8, !tbaa !8
  %116 = call i32 @H5AC_unprotect(ptr noundef %111, ptr noundef @H5AC_EARRAY_IBLOCK, i64 noundef %114, ptr noundef %115, i32 noundef 0)
  %117 = icmp slt i32 %116, 0
  br i1 %117, label %118, label %137

118:                                              ; preds = %108
  br label %119

119:                                              ; preds = %118
  br label %120

120:                                              ; preds = %119
  br label %121

121:                                              ; preds = %120
  %122 = load i64, ptr @H5E_EARRAY_g, align 8, !tbaa !14
  %123 = load i64, ptr @H5E_CANTUNPROTECT_g, align 8, !tbaa !14
  %124 = load ptr, ptr %5, align 8, !tbaa !8
  %125 = getelementptr inbounds nuw %struct.H5EA_iblock_t, ptr %124, i32 0, i32 5
  %126 = load i64, ptr %125, align 8, !tbaa !27
  %127 = call i32 (ptr, ptr, i32, i64, i64, ptr, ...) @H5E_printf_stack(ptr noundef @.str, ptr noundef @__func__.H5EA__iblock_protect, i32 noundef 311, i64 noundef %122, i64 noundef %123, ptr noundef @.str.14, i64 noundef %126)
  br label %128

128:                                              ; preds = %121
  br label %129

129:                                              ; preds = %128
  store i8 1, ptr %7, align 1, !tbaa !10
  %130 = load i8, ptr %7, align 1, !tbaa !10, !range !12, !noundef !13
  %131 = trunc i8 %130 to i1
  %132 = zext i1 %131 to i8
  store i8 %132, ptr %7, align 1, !tbaa !10
  br label %133

133:                                              ; preds = %129
  br label %134

134:                                              ; preds = %133
  store ptr null, ptr %6, align 8, !tbaa !8
  br label %135

135:                                              ; preds = %134
  br label %136

136:                                              ; preds = %135
  br label %137

137:                                              ; preds = %136, %108, %105
  br label %138

138:                                              ; preds = %137, %102
  br label %139

139:                                              ; preds = %138, %14
  %140 = load ptr, ptr %6, align 8, !tbaa !8
  call void @llvm.lifetime.end.p0(i64 1, ptr %7) #5
  call void @llvm.lifetime.end.p0(i64 8, ptr %6) #5
  call void @llvm.lifetime.end.p0(i64 8, ptr %5) #5
  ret ptr %140
}