; Function Attrs: nounwind uwtable
define ptr @H5EA__iblock_protect(ptr noundef %0, i32 noundef %1) local_unnamed_addr #0 {
  %3 = load i8, ptr @H5EA_init_g, align 1, !tbaa !3, !range !7, !noundef !8
  %4 = trunc nuw i8 %3 to i1
  %5 = load i8, ptr @H5_libterm_g, align 1, !range !7
  %6 = trunc nuw i8 %5 to i1
  %7 = xor i1 %6, true
  %8 = select i1 %4, i1 true, i1 %7
  br i1 %8, label %9, label %.thread, !prof !9

9:                                                ; preds = %2
  %10 = getelementptr inbounds nuw i8, ptr %0, i64 384
  %11 = load ptr, ptr %10, align 8, !tbaa !53
  %12 = getelementptr inbounds nuw i8, ptr %0, i64 264
  %13 = load i64, ptr %12, align 8, !tbaa !60
  %14 = tail call ptr @H5AC_protect(ptr noundef %11, ptr noundef nonnull @H5AC_EARRAY_IBLOCK, i64 noundef %13, ptr noundef %0, i32 noundef %1) #3
  %15 = icmp eq ptr %14, null
  br i1 %15, label %16, label %21

16:                                               ; preds = %9
  %17 = load i64, ptr @H5E_EARRAY_g, align 8, !tbaa !10
  %18 = load i64, ptr @H5E_CANTPROTECT_g, align 8, !tbaa !10
  %19 = load i64, ptr %12, align 8, !tbaa !60
  %20 = tail call i32 (ptr, ptr, i32, i64, i64, ptr, ...) @H5E_printf_stack(ptr noundef nonnull @.str, ptr noundef nonnull @__func__.H5EA__iblock_protect, i32 noundef 289, i64 noundef %17, i64 noundef %18, ptr noundef nonnull @.str.13, i64 noundef %19) #3
  br label %.thread

21:                                               ; preds = %9
  %22 = getelementptr inbounds nuw i8, ptr %0, i64 472
  %23 = load ptr, ptr %22, align 8, !tbaa !55
  %.not = icmp eq ptr %23, null
  br i1 %.not, label %.thread, label %24

24:                                               ; preds = %21
  %25 = getelementptr inbounds nuw i8, ptr %14, i64 296
  %26 = load ptr, ptr %25, align 8, !tbaa !56
  %27 = icmp eq ptr %26, null
  br i1 %27, label %28, label %.thread

28:                                               ; preds = %24
  %29 = load ptr, ptr %10, align 8, !tbaa !53
  %30 = tail call i32 @H5AC_proxy_entry_add_child(ptr noundef nonnull %23, ptr noundef %29, ptr noundef nonnull %14) #3
  %31 = icmp slt i32 %30, 0
  br i1 %31, label %34, label %32

32:                                               ; preds = %28
  %33 = load ptr, ptr %22, align 8, !tbaa !55
  store ptr %33, ptr %25, align 8, !tbaa !56
  br label %.thread

34:                                               ; preds = %28
  %35 = load i64, ptr @H5E_EARRAY_g, align 8, !tbaa !10
  %36 = load i64, ptr @H5E_CANTSET_g, align 8, !tbaa !10
  %37 = tail call i32 (ptr, ptr, i32, i64, i64, ptr, ...) @H5E_printf_stack(ptr noundef nonnull @.str, ptr noundef nonnull @__func__.H5EA__iblock_protect, i32 noundef 296, i64 noundef %35, i64 noundef %36, ptr noundef nonnull @.str.10) #3
  %38 = load ptr, ptr %10, align 8, !tbaa !53
  %39 = getelementptr inbounds nuw i8, ptr %14, i64 280
  %40 = load i64, ptr %39, align 8, !tbaa !25
  %41 = tail call i32 @H5AC_unprotect(ptr noundef %38, ptr noundef nonnull @H5AC_EARRAY_IBLOCK, i64 noundef %40, ptr noundef nonnull %14, i32 noundef 0) #3
  %42 = icmp slt i32 %41, 0
  br i1 %42, label %43, label %.thread

43:                                               ; preds = %34
  %44 = load i64, ptr @H5E_EARRAY_g, align 8, !tbaa !10
  %45 = load i64, ptr @H5E_CANTUNPROTECT_g, align 8, !tbaa !10
  %46 = load i64, ptr %39, align 8, !tbaa !25
  %47 = tail call i32 (ptr, ptr, i32, i64, i64, ptr, ...) @H5E_printf_stack(ptr noundef nonnull @.str, ptr noundef nonnull @__func__.H5EA__iblock_protect, i32 noundef 311, i64 noundef %44, i64 noundef %45, ptr noundef nonnull @.str.14, i64 noundef %46) #3
  br label %.thread

.thread:                                          ; preds = %16, %21, %24, %32, %43, %34, %2
  %.0 = phi ptr [ null, %43 ], [ null, %34 ], [ null, %2 ], [ %14, %21 ], [ %14, %24 ], [ %14, %32 ], [ null, %16 ]
  ret ptr %.0
}